; Function Attrs: nounwind uwtable
define void @errorv(ptr noundef %0, i32 noundef %1, ptr noundef readonly captures(none) %2, ptr noundef %3) local_unnamed_addr #2 {
  %5 = load i32, ptr getelementptr inbounds nuw (i8, ptr @error_info, i64 16), align 8, !tbaa !13
  %6 = icmp slt i32 %1, %5
  br i1 %6, label %72, label %7

7:                                                ; preds = %4
  %8 = icmp slt i32 %1, 0
  %9 = and i32 %1, 255
  %.023 = select i1 %8, i32 %1, i32 %9
  %10 = tail call i32 @llvm.smax.i32(i32 %1, i32 0)
  %.not = icmp eq i32 %.023, 0
  br i1 %.not, label %17, label %11

11:                                               ; preds = %7
  %12 = load ptr, ptr getelementptr inbounds nuw (i8, ptr @error_info, i64 32), align 8, !tbaa !11
  %.not28 = icmp eq ptr %12, null
  br i1 %.not28, label %13, label %.sink.split

13:                                               ; preds = %11
  %.not29 = icmp eq ptr %0, null
  br i1 %.not29, label %17, label %.sink.split

.sink.split:                                      ; preds = %13, %11
  %.021 = phi ptr [ %12, %11 ], [ %0, %13 ]
  %14 = and i32 %10, 2048
  %.not30 = icmp eq i32 %14, 0
  %15 = load ptr, ptr @stderr, align 8, !tbaa !14
  %.str.1..str = select i1 %.not30, ptr @.str.1, ptr @.str
  %16 = tail call i32 (ptr, ptr, ...) @fprintf(ptr noundef %15, ptr noundef nonnull %.str.1..str, ptr noundef nonnull %.021) #12
  br label %17

17:                                               ; preds = %.sink.split, %13, %7
  %18 = and i32 %10, 2048
  %.not31 = icmp eq i32 %18, 0
  br i1 %.not31, label %19, label %57

19:                                               ; preds = %17
  br i1 %8, label %.preheader, label %29

.preheader:                                       ; preds = %19
  %20 = load i32, ptr getelementptr inbounds nuw (i8, ptr @error_info, i64 4), align 4, !tbaa !16
  %21 = icmp sgt i32 %20, 0
  br i1 %21, label %.lr.ph, label %._crit_edge

.lr.ph:                                           ; preds = %.preheader, %.lr.ph
  %.036 = phi i32 [ %24, %.lr.ph ], [ 0, %.preheader ]
  %22 = load ptr, ptr @stderr, align 8, !tbaa !14
  %23 = tail call i64 @fwrite(ptr nonnull @.str.2, i64 2, i64 1, ptr %22) #13
  %24 = add nuw nsw i32 %.036, 1
  %25 = load i32, ptr getelementptr inbounds nuw (i8, ptr @error_info, i64 4), align 4, !tbaa !16
  %26 = icmp slt i32 %24, %25
  br i1 %26, label %.lr.ph, label %._crit_edge, !llvm.loop !17

._crit_edge:                                      ; preds = %.lr.ph, %.preheader
  %27 = load ptr, ptr @stderr, align 8, !tbaa !14
  %28 = tail call i32 (ptr, ptr, ...) @fprintf(ptr noundef %27, ptr noundef nonnull @.str.3, i32 noundef %.023) #12
  br label %57

29:                                               ; preds = %19
  br i1 %.not, label %57, label %30

30:                                               ; preds = %29
  %31 = icmp eq i32 %9, 1
  br i1 %31, label %32, label %37

32:                                               ; preds = %30
  %33 = load ptr, ptr @stderr, align 8, !tbaa !14
  %34 = tail call i64 @fwrite(ptr nonnull @.str.4, i64 9, i64 1, ptr %33) #13
  %35 = load i32, ptr getelementptr inbounds nuw (i8, ptr @error_info, i64 12), align 4, !tbaa !19
  %36 = add nsw i32 %35, 1
  store i32 %36, ptr getelementptr inbounds nuw (i8, ptr @error_info, i64 12), align 4, !tbaa !19
  br label %44

37:                                               ; preds = %30
  %38 = load i32, ptr @error_info, align 8, !tbaa !12
  %39 = add nsw i32 %38, 1
  store i32 %39, ptr @error_info, align 8, !tbaa !12
  %40 = icmp eq i32 %9, 255
  br i1 %40, label %41, label %44

41:                                               ; preds = %37
  %42 = load ptr, ptr @stderr, align 8, !tbaa !14
  %43 = tail call i64 @fwrite(ptr nonnull @.str.5, i64 7, i64 1, ptr %42) #13
  br label %44

44:                                               ; preds = %37, %41, %32
  %45 = load i32, ptr getelementptr inbounds nuw (i8, ptr @error_info, i64 8), align 8, !tbaa !3
  %.not32 = icmp eq i32 %45, 0
  br i1 %.not32, label %57, label %46

46:                                               ; preds = %44
  %47 = load ptr, ptr getelementptr inbounds nuw (i8, ptr @error_info, i64 24), align 8, !tbaa !10
  %.not33 = icmp eq ptr %47, null
  br i1 %.not33, label %53, label %48

48:                                               ; preds = %46
  %49 = load i8, ptr %47, align 1, !tbaa !20
  %.not34 = icmp eq i8 %49, 0
  br i1 %.not34, label %53, label %50

50:                                               ; preds = %48
  %51 = load ptr, ptr @stderr, align 8, !tbaa !14
  %52 = tail call i32 (ptr, ptr, ...) @fprintf(ptr noundef %51, ptr noundef nonnull @.str.6, ptr noundef nonnull %47) #12
  %.pre = load i32, ptr getelementptr inbounds nuw (i8, ptr @error_info, i64 8), align 8, !tbaa !3
  br label %53

53:                                               ; preds = %50, %48, %46
  %54 = phi i32 [ %.pre, %50 ], [ %45, %48 ], [ %45, %46 ]
  %55 = load ptr, ptr @stderr, align 8, !tbaa !14
  %56 = tail call i32 (ptr, ptr, ...) @fprintf(ptr noundef %55, ptr noundef nonnull @.str.7, i32 noundef %54) #12
  br label %57

57:                                               ; preds = %._crit_edge, %44, %53, %29, %17
  %58 = load ptr, ptr @stderr, align 8, !tbaa !14
  %59 = tail call i32 @vfprintf(ptr noundef %58, ptr noundef %2, ptr noundef %3) #12
  %60 = and i32 %10, 256
  %.not35 = icmp eq i32 %60, 0
  br i1 %.not35, label %67, label %61

61:                                               ; preds = %57
  %62 = load ptr, ptr @stderr, align 8, !tbaa !14
  %63 = tail call ptr @__errno_location() #14
  %64 = load i32, ptr %63, align 4, !tbaa !21
  %65 = tail call ptr @strerror(i32 noundef %64) #15
  %66 = tail call i32 (ptr, ptr, ...) @fprintf(ptr noundef %62, ptr noundef nonnull @.str.8, ptr noundef %65) #12
  br label %67

67:                                               ; preds = %61, %57
  %68 = load ptr, ptr @stderr, align 8, !tbaa !14
  %fputc = tail call i32 @fputc(i32 10, ptr %68)
  %69 = icmp sgt i32 %.023, 2
  br i1 %69, label %70, label %72

70:                                               ; preds = %67
  %71 = add nsw i32 %.023, -2
  tail call fastcc void @graphviz_exit(i32 noundef %71) #16
  unreachable

72:                                               ; preds = %67, %4
  ret void
}